target datalayout = "e-m:e-p270:32:32-p271:32:32-p272:64:64-i64:64-i128:128-f80:128-n8:16:32:64-S128"
target triple = "x86_64-pc-linux-gnu"

%struct.connectdata = type { %struct.Curl_llist_node, ptr, ptr, i64, ptr, i64, ptr, ptr, %struct.hostname, ptr, ptr, %struct.hostname, %struct.proxy_info, %struct.proxy_info, %struct.ip_quadruple, %struct.ip_quadruple, ptr, ptr, ptr, ptr, ptr, %struct.curltime, %struct.curltime, %struct.curltime, [2 x i32], [2 x ptr], [2 x ptr], [2 x ptr], %struct.anon, %struct.easy_pollset, %struct.ssl_primary_config, %struct.ssl_primary_config, %struct.ConnectBits, ptr, ptr, %struct.curltime, i32, i32, %struct.Curl_llist, i32, i32, %struct.ntlmdata, %struct.ntlmdata, %union.anon.1, ptr, ptr, i16, i32, i32, i32, i32, i16, i16, i8, i8, i8, i8, i8, i8, i8 }
%struct.Curl_llist_node = type { ptr, ptr, ptr, ptr }
%struct.hostname = type { ptr, ptr, ptr, ptr }
%struct.proxy_info = type { %struct.hostname, i32, i8, ptr, ptr }
%struct.ip_quadruple = type { [46 x i8], [46 x i8], i32, i32 }
%struct.anon = type { [2 x %struct.curltime], i32 }
%struct.easy_pollset = type { [5 x i32], i32, [5 x i8] }
%struct.ssl_primary_config = type { ptr, ptr, ptr, ptr, ptr, ptr, ptr, ptr, ptr, ptr, ptr, ptr, ptr, ptr, i8, i32, i8, i8 }
%struct.ConnectBits = type { i64 }
%struct.curltime = type { i64, i32 }
%struct.Curl_llist = type { ptr, ptr, ptr, i64 }
%struct.ntlmdata = type { i32, [8 x i8], i32, ptr }
%union.anon.1 = type { %struct.ftp_conn }
%struct.ftp_conn = type { %struct.pingpong, ptr, ptr, ptr, ptr, ptr, ptr, ptr, i8, i64, ptr, i64, i32, i32, i32, i32, i32, i16, i8, i8, i8, i8, i8 }
%struct.pingpong = type { i64, i8, ptr, i64, i64, %struct.curltime, i64, %struct.dynbuf, %struct.dynbuf, i64, i64, ptr, ptr }
%struct.dynbuf = type { ptr, i64, i64, i64 }
%struct.Curl_easy = type { i32, i64, i64, ptr, %struct.Curl_llist_node, %struct.Curl_llist_node, i32, i32, %struct.Curl_message, %struct.easy_pollset, %struct.Names, ptr, ptr, ptr, ptr, %struct.SingleRequest, %struct.UserDefined, ptr, ptr, ptr, %struct.Progress, %struct.UrlState, ptr, %struct.PureInfo, %struct.curl_tlssessioninfo }
%struct.Curl_message = type { %struct.Curl_llist_node, %struct.CURLMsg }
%struct.CURLMsg = type { i32, ptr, %union.anon }
%union.anon = type { ptr }
%struct.Names = type { ptr, i32 }
%struct.SingleRequest = type <{ i64, i64, i64, i64, %struct.curltime, i32, i32, i32, i32, i64, i32, i32, i8, i8, [2 x i8], i32, ptr, ptr, %struct.bufq, i64, i64, ptr, ptr, %union.anon.0, ptr, i8, i32, [3 x i8] }>
%struct.bufq = type { ptr, ptr, ptr, ptr, i64, i64, i64, i32 }
%union.anon.0 = type { ptr }
%struct.UserDefined = type <{ ptr, ptr, ptr, ptr, ptr, ptr, i64, i64, i64, ptr, ptr, i64, ptr, ptr, ptr, ptr, ptr, ptr, ptr, ptr, ptr, ptr, ptr, ptr, ptr, ptr, ptr, ptr, ptr, ptr, ptr, ptr, ptr, ptr, ptr, i64, i64, i64, i64, i64, i64, i64, i64, i64, ptr, ptr, %struct.curl_mimepart, ptr, ptr, ptr, i64, %struct.ssl_config_data, %struct.ssl_config_data, ptr, i16, i8, i8, %struct.ssl_general_config, i32, i32, i32, [4 x i8], ptr, ptr, i64, i32, i8, i8, i8, i8, ptr, ptr, ptr, i32, [4 x i8], [74 x ptr], [8 x ptr], i32, i32, i32, [4 x i8], ptr, i32, [4 x i8], ptr, ptr, ptr, ptr, ptr, i32, i32, i32, i32, i32, i32, i32, i32, i64, ptr, ptr, i64, ptr, i64, ptr, ptr, ptr, ptr, i32, i16, i16, i16, i8, i8, i8, i8, i8, i8, i8, i8, i64, [6 x i8] }>
%struct.curl_mimepart = type { ptr, ptr, i32, i32, ptr, ptr, ptr, ptr, ptr, ptr, ptr, ptr, ptr, ptr, ptr, i64, %struct.mime_state, ptr, %struct.mime_encoder_state, i64 }
%struct.mime_state = type { i32, ptr, i64 }
%struct.mime_encoder_state = type { i64, i64, i64, [256 x i8] }
%struct.ssl_config_data = type { %struct.ssl_primary_config, i64, ptr, ptr, ptr, ptr, ptr, ptr, ptr, i16 }
%struct.ssl_general_config = type { i32 }
%struct.Progress = type { i64, %struct.pgrs_dir, %struct.pgrs_dir, i64, i64, i32, i32, i64, i64, i64, i64, i64, i64, i64, i64, i64, %struct.curltime, %struct.curltime, %struct.curltime, %struct.curltime, %struct.curltime, [6 x i64], [6 x %struct.curltime], i32, i8 }
%struct.pgrs_dir = type { i64, i64, i64, %struct.pgrs_measure }
%struct.pgrs_measure = type { %struct.curltime, i64 }
%struct.UrlState = type { %struct.curltime, i64, i64, %struct.dynbuf, ptr, i64, ptr, i32, i32, i32, ptr, i32, i64, i32, ptr, %struct.digestdata, %struct.digestdata, %struct.auth, %struct.auth, %struct.Curl_async, ptr, i8, %struct.curltime, %struct.Curl_tree, %struct.Curl_llist, [15 x %struct.time_node], ptr, ptr, i64, i64, i64, i64, [32 x i8], i64, ptr, ptr, ptr, %struct.urlpieces, ptr, ptr, ptr, ptr, ptr, i64, %struct.dynbuf, %struct.Curl_llist, [2 x %struct.curl_header], ptr, i32, ptr, ptr, %struct.store_netrc, %struct.dynamically_allocated_data, i8, i8, i8, i8, i32 }
%struct.digestdata = type { ptr, ptr, ptr, ptr, ptr, ptr, i32, i8, i8 }
%struct.auth = type { i64, i64, i64, i8 }
%struct.Curl_async = type { ptr, ptr, ptr, ptr, i32, i32, i8 }
%struct.Curl_tree = type { ptr, ptr, ptr, ptr, %struct.curltime, ptr }
%struct.time_node = type { %struct.Curl_llist_node, %struct.curltime, i32 }
%struct.urlpieces = type { ptr, ptr, ptr, ptr, ptr, ptr, ptr, ptr }
%struct.curl_header = type { ptr, ptr, i64, i64, i32, ptr }
%struct.store_netrc = type { %struct.dynbuf, ptr, i8 }
%struct.dynamically_allocated_data = type { ptr, ptr, ptr, ptr, ptr, ptr, ptr, ptr, ptr, ptr, ptr, ptr, ptr, ptr }
%struct.PureInfo = type { i32, i32, i32, i64, i64, i64, i64, i64, i64, i64, ptr, ptr, i64, i32, %struct.ip_quadruple, i32, ptr, i32, %struct.curl_certinfo, i32, i8 }
%struct.curl_certinfo = type { i32, ptr }
%struct.curl_tlssessioninfo = type { i32, ptr }
%struct.IMAP = type { i32, ptr, ptr, ptr, ptr, ptr, ptr, ptr, ptr, ptr }
%struct.imap_conn = type { %struct.pingpong, %struct.SASL, %struct.dynbuf, ptr, ptr, i32, [5 x i8], i8, i8, i8 }
%struct.SASL = type { ptr, i32, ptr, i16, i16, i16, i8 }

@.str.15 = private unnamed_addr constant [1 x i8] zeroinitializer, align 1
@.str.29 = private unnamed_addr constant [26 x i8] c"UID FETCH %s BODY[%s]<%s>\00", align 1
@.str.30 = private unnamed_addr constant [22 x i8] c"UID FETCH %s BODY[%s]\00", align 1
@.str.31 = private unnamed_addr constant [22 x i8] c"FETCH %s BODY[%s]<%s>\00", align 1
@.str.32 = private unnamed_addr constant [18 x i8] c"FETCH %s BODY[%s]\00", align 1
@.str.33 = private unnamed_addr constant [28 x i8] c"Cannot FETCH without a UID.\00", align 1

; Function Attrs: nounwind uwtable
define internal void @imap_state(ptr noundef %0, i32 noundef %1) #0 {
  %3 = alloca ptr, align 8
  %4 = alloca i32, align 4
  %5 = alloca ptr, align 8
  store ptr %0, ptr %3, align 8, !tbaa !3
  store i32 %1, ptr %4, align 4, !tbaa !10
  call void @llvm.lifetime.start.p0(i64 8, ptr %5) #6
  %6 = load ptr, ptr %3, align 8, !tbaa !3
  %7 = getelementptr inbounds nuw %struct.Curl_easy, ptr %6, i32 0, i32 3
  %8 = load ptr, ptr %7, align 8, !tbaa !16
  %9 = getelementptr inbounds nuw %struct.connectdata, ptr %8, i32 0, i32 43
  store ptr %9, ptr %5, align 8, !tbaa !99
  %10 = load i32, ptr %4, align 4, !tbaa !10
  %11 = load ptr, ptr %5, align 8, !tbaa !99
  %12 = getelementptr inbounds nuw %struct.imap_conn, ptr %11, i32 0, i32 5
  store i32 %10, ptr %12, align 8, !tbaa !113
  call void @llvm.lifetime.end.p0(i64 8, ptr %5) #6
  ret void
}

; Function Attrs: nounwind uwtable
define internal i32 @imap_perform_fetch(ptr noundef %0) #0 {
  %2 = alloca i32, align 4
  %3 = alloca ptr, align 8
  %4 = alloca i32, align 4
  %5 = alloca ptr, align 8
  %6 = alloca i32, align 4
  store ptr %0, ptr %3, align 8, !tbaa !3
  call void @llvm.lifetime.start.p0(i64 4, ptr %4) #6
  store i32 0, ptr %4, align 4, !tbaa !10
  call void @llvm.lifetime.start.p0(i64 8, ptr %5) #6
  %7 = load ptr, ptr %3, align 8, !tbaa !3
  %8 = getelementptr inbounds nuw %struct.Curl_easy, ptr %7, i32 0, i32 15
  %9 = getelementptr inbounds nuw %struct.SingleRequest, ptr %8, i32 0, i32 23
  %10 = load ptr, ptr %9, align 8, !tbaa !83
  store ptr %10, ptr %5, align 8, !tbaa !84
  %11 = load ptr, ptr %5, align 8, !tbaa !84
  %12 = getelementptr inbounds nuw %struct.IMAP, ptr %11, i32 0, i32 3
  %13 = load ptr, ptr %12, align 8, !tbaa !88
  %14 = icmp ne ptr %13, null
  br i1 %14, label %15, label %58

15:                                               ; preds = %1
  %16 = load ptr, ptr %5, align 8, !tbaa !84
  %17 = getelementptr inbounds nuw %struct.IMAP, ptr %16, i32 0, i32 6
  %18 = load ptr, ptr %17, align 8, !tbaa !95
  %19 = icmp ne ptr %18, null
  br i1 %19, label %20, label %40

20:                                               ; preds = %15
  %21 = load ptr, ptr %3, align 8, !tbaa !3
  %22 = load ptr, ptr %5, align 8, !tbaa !84
  %23 = getelementptr inbounds nuw %struct.IMAP, ptr %22, i32 0, i32 3
  %24 = load ptr, ptr %23, align 8, !tbaa !88
  %25 = load ptr, ptr %5, align 8, !tbaa !84
  %26 = getelementptr inbounds nuw %struct.IMAP, ptr %25, i32 0, i32 5
  %27 = load ptr, ptr %26, align 8, !tbaa !94
  %28 = icmp ne ptr %27, null
  br i1 %28, label %29, label %33

29:                                               ; preds = %20
  %30 = load ptr, ptr %5, align 8, !tbaa !84
  %31 = getelementptr inbounds nuw %struct.IMAP, ptr %30, i32 0, i32 5
  %32 = load ptr, ptr %31, align 8, !tbaa !94
  br label %34

33:                                               ; preds = %20
  br label %34

34:                                               ; preds = %33, %29
  %35 = phi ptr [ %32, %29 ], [ @.str.15, %33 ]
  %36 = load ptr, ptr %5, align 8, !tbaa !84
  %37 = getelementptr inbounds nuw %struct.IMAP, ptr %36, i32 0, i32 6
  %38 = load ptr, ptr %37, align 8, !tbaa !95
  %39 = call i32 (ptr, ptr, ...) @imap_sendf(ptr noundef %21, ptr noundef @.str.29, ptr noundef %24, ptr noundef %35, ptr noundef %38)
  store i32 %39, ptr %4, align 4, !tbaa !10
  br label %57

40:                                               ; preds = %15
  %41 = load ptr, ptr %3, align 8, !tbaa !3
  %42 = load ptr, ptr %5, align 8, !tbaa !84
  %43 = getelementptr inbounds nuw %struct.IMAP, ptr %42, i32 0, i32 3
  %44 = load ptr, ptr %43, align 8, !tbaa !88
  %45 = load ptr, ptr %5, align 8, !tbaa !84
  %46 = getelementptr inbounds nuw %struct.IMAP, ptr %45, i32 0, i32 5
  %47 = load ptr, ptr %46, align 8, !tbaa !94
  %48 = icmp ne ptr %47, null
  br i1 %48, label %49, label %53

49:                                               ; preds = %40
  %50 = load ptr, ptr %5, align 8, !tbaa !84
  %51 = getelementptr inbounds nuw %struct.IMAP, ptr %50, i32 0, i32 5
  %52 = load ptr, ptr %51, align 8, !tbaa !94
  br label %54

53:                                               ; preds = %40
  br label %54

54:                                               ; preds = %53, %49
  %55 = phi ptr [ %52, %49 ], [ @.str.15, %53 ]
  %56 = call i32 (ptr, ptr, ...) @imap_sendf(ptr noundef %41, ptr noundef @.str.30, ptr noundef %44, ptr noundef %55)
  store i32 %56, ptr %4, align 4, !tbaa !10
  br label %57

57:                                               ; preds = %54, %34
  br label %109

58:                                               ; preds = %1
  %59 = load ptr, ptr %5, align 8, !tbaa !84
  %60 = getelementptr inbounds nuw %struct.IMAP, ptr %59, i32 0, i32 4
  %61 = load ptr, ptr %60, align 8, !tbaa !89
  %62 = icmp ne ptr %61, null
  br i1 %62, label %63, label %106

63:                                               ; preds = %58
  %64 = load ptr, ptr %5, align 8, !tbaa !84
  %65 = getelementptr inbounds nuw %struct.IMAP, ptr %64, i32 0, i32 6
  %66 = load ptr, ptr %65, align 8, !tbaa !95
  %67 = icmp ne ptr %66, null
  br i1 %67, label %68, label %88

68:                                               ; preds = %63
  %69 = load ptr, ptr %3, align 8, !tbaa !3
  %70 = load ptr, ptr %5, align 8, !tbaa !84
  %71 = getelementptr inbounds nuw %struct.IMAP, ptr %70, i32 0, i32 4
  %72 = load ptr, ptr %71, align 8, !tbaa !89
  %73 = load ptr, ptr %5, align 8, !tbaa !84
  %74 = getelementptr inbounds nuw %struct.IMAP, ptr %73, i32 0, i32 5
  %75 = load ptr, ptr %74, align 8, !tbaa !94
  %76 = icmp ne ptr %75, null
  br i1 %76, label %77, label %81

77:                                               ; preds = %68
  %78 = load ptr, ptr %5, align 8, !tbaa !84
  %79 = getelementptr inbounds nuw %struct.IMAP, ptr %78, i32 0, i32 5
  %80 = load ptr, ptr %79, align 8, !tbaa !94
  br label %82

81:                                               ; preds = %68
  br label %82

82:                                               ; preds = %81, %77
  %83 = phi ptr [ %80, %77 ], [ @.str.15, %81 ]
  %84 = load ptr, ptr %5, align 8, !tbaa !84
  %85 = getelementptr inbounds nuw %struct.IMAP, ptr %84, i32 0, i32 6
  %86 = load ptr, ptr %85, align 8, !tbaa !95
  %87 = call i32 (ptr, ptr, ...) @imap_sendf(ptr noundef %69, ptr noundef @.str.31, ptr noundef %72, ptr noundef %83, ptr noundef %86)
  store i32 %87, ptr %4, align 4, !tbaa !10
  br label %105

88:                                               ; preds = %63
  %89 = load ptr, ptr %3, align 8, !tbaa !3
  %90 = load ptr, ptr %5, align 8, !tbaa !84
  %91 = getelementptr inbounds nuw %struct.IMAP, ptr %90, i32 0, i32 4
  %92 = load ptr, ptr %91, align 8, !tbaa !89
  %93 = load ptr, ptr %5, align 8, !tbaa !84
  %94 = getelementptr inbounds nuw %struct.IMAP, ptr %93, i32 0, i32 5
  %95 = load ptr, ptr %94, align 8, !tbaa !94
  %96 = icmp ne ptr %95, null
  br i1 %96, label %97, label %101

97:                                               ; preds = %88
  %98 = load ptr, ptr %5, align 8, !tbaa !84
  %99 = getelementptr inbounds nuw %struct.IMAP, ptr %98, i32 0, i32 5
  %100 = load ptr, ptr %99, align 8, !tbaa !94
  br label %102

101:                                              ; preds = %88
  br label %102

102:                                              ; preds = %101, %97
  %103 = phi ptr [ %100, %97 ], [ @.str.15, %101 ]
  %104 = call i32 (ptr, ptr, ...) @imap_sendf(ptr noundef %89, ptr noundef @.str.32, ptr noundef %92, ptr noundef %103)
  store i32 %104, ptr %4, align 4, !tbaa !10
  br label %105

105:                                              ; preds = %102, %82
  br label %108

106:                                              ; preds = %58
  %107 = load ptr, ptr %3, align 8, !tbaa !3
  call void (ptr, ptr, ...) @Curl_failf(ptr noundef %107, ptr noundef @.str.33)
  store i32 3, ptr %2, align 4
  store i32 1, ptr %6, align 4
  br label %116

108:                                              ; preds = %105
  br label %109

109:                                              ; preds = %108, %57
  %110 = load i32, ptr %4, align 4, !tbaa !10
  %111 = icmp ne i32 %110, 0
  br i1 %111, label %114, label %112

112:                                              ; preds = %109
  %113 = load ptr, ptr %3, align 8, !tbaa !3
  call void @imap_state(ptr noundef %113, i32 noundef 9)
  br label %114

114:                                              ; preds = %112, %109
  %115 = load i32, ptr %4, align 4, !tbaa !10
  store i32 %115, ptr %2, align 4
  store i32 1, ptr %6, align 4
  br label %116

116:                                              ; preds = %114, %106
  call void @llvm.lifetime.end.p0(i64 8, ptr %5) #6
  call void @llvm.lifetime.end.p0(i64 4, ptr %4) #6
  %117 = load i32, ptr %2, align 4
  ret i32 %117
}