; Function Attrs: nounwind uwtable
define internal fastcc i32 @imap_perform_fetch(ptr noundef %0) unnamed_addr #0 {
  %2 = getelementptr inbounds nuw i8, ptr %0, i64 440
  %3 = load ptr, ptr %2, align 8, !tbaa !7
  %4 = getelementptr inbounds nuw i8, ptr %3, i64 24
  %5 = load ptr, ptr %4, align 8, !tbaa !88
  %.not = icmp eq ptr %5, null
  br i1 %.not, label %15, label %6

6:                                                ; preds = %1
  %7 = getelementptr inbounds nuw i8, ptr %3, i64 48
  %8 = load ptr, ptr %7, align 8, !tbaa !91
  %.not38 = icmp eq ptr %8, null
  %9 = getelementptr inbounds nuw i8, ptr %3, i64 40
  %10 = load ptr, ptr %9, align 8, !tbaa !90
  %.not39 = icmp eq ptr %10, null
  %spec.select42 = select i1 %.not39, ptr @.str.15, ptr %10
  br i1 %.not38, label %13, label %11

11:                                               ; preds = %6
  %12 = tail call i32 (ptr, ptr, ...) @imap_sendf(ptr noundef nonnull %0, ptr noundef nonnull @.str.29, ptr noundef nonnull %5, ptr noundef nonnull %spec.select42, ptr noundef nonnull %8)
  br label %28

13:                                               ; preds = %6
  %14 = tail call i32 (ptr, ptr, ...) @imap_sendf(ptr noundef nonnull %0, ptr noundef nonnull @.str.30, ptr noundef nonnull %5, ptr noundef nonnull %spec.select42)
  br label %28

15:                                               ; preds = %1
  %16 = getelementptr inbounds nuw i8, ptr %3, i64 32
  %17 = load ptr, ptr %16, align 8, !tbaa !89
  %.not34 = icmp eq ptr %17, null
  br i1 %.not34, label %27, label %18

18:                                               ; preds = %15
  %19 = getelementptr inbounds nuw i8, ptr %3, i64 48
  %20 = load ptr, ptr %19, align 8, !tbaa !91
  %.not35 = icmp eq ptr %20, null
  %21 = getelementptr inbounds nuw i8, ptr %3, i64 40
  %22 = load ptr, ptr %21, align 8, !tbaa !90
  %.not36 = icmp eq ptr %22, null
  %spec.select44 = select i1 %.not36, ptr @.str.15, ptr %22
  br i1 %.not35, label %25, label %23

23:                                               ; preds = %18
  %24 = tail call i32 (ptr, ptr, ...) @imap_sendf(ptr noundef nonnull %0, ptr noundef nonnull @.str.31, ptr noundef nonnull %17, ptr noundef nonnull %spec.select44, ptr noundef nonnull %20)
  br label %28

25:                                               ; preds = %18
  %26 = tail call i32 (ptr, ptr, ...) @imap_sendf(ptr noundef nonnull %0, ptr noundef nonnull @.str.32, ptr noundef nonnull %17, ptr noundef nonnull %spec.select44)
  br label %28

27:                                               ; preds = %15
  tail call void (ptr, ptr, ...) @Curl_failf(ptr noundef nonnull %0, ptr noundef nonnull @.str.33) #7
  br label %32

28:                                               ; preds = %25, %23, %11, %13
  %.027 = phi i32 [ %12, %11 ], [ %14, %13 ], [ %24, %23 ], [ %26, %25 ]
  %.not41 = icmp eq i32 %.027, 0
  br i1 %.not41, label %29, label %32

29:                                               ; preds = %28
  %30 = getelementptr i8, ptr %0, i64 24
  %.val = load ptr, ptr %30, align 8, !tbaa !98
  %31 = getelementptr inbounds nuw i8, ptr %.val, i64 1328
  store i32 9, ptr %31, align 8, !tbaa !110
  br label %32

32:                                               ; preds = %28, %29, %27
  %.0 = phi i32 [ 3, %27 ], [ 0, %29 ], [ %.027, %28 ]
  ret i32 %.0
}